target datalayout = "e-m:e-p270:32:32-p271:32:32-p272:64:64-i64:64-i128:128-f80:128-n8:16:32:64-S128"
target triple = "x86_64-pc-linux-gnu"

%struct.HelperCommand = type { i32, i8, i8, i8, ptr, %union.anon }
%union.anon = type { %struct.ReportEventCompositeCommand }
%struct.ReportEventCompositeCommand = type { i8, i32, [1 x %struct.CommandSingle] }
%struct.CommandSingle = type { i32, %union.anon.0 }
%union.anon.0 = type { %struct.EventCommandSingle }
%struct.EventCommandSingle = type { i8, i32, %struct.EventInfo }
%struct.EventInfo = type { i32, ptr, i8, ptr, ptr, i64, ptr, %union.anon.1 }
%union.anon.1 = type { %struct.anon.2 }
%struct.anon.2 = type { ptr, ptr, i8, %union.jvalue }
%union.jvalue = type { i64 }
%struct.ReportVMInitCommand = type { i8, ptr }

@.str.7 = private unnamed_addr constant [54 x i8] c"src/jdk.jdwp.agent/share/native/libjdwp/eventHelper.c\00", align 1
@stderr = external global ptr, align 8
@.str.12 = private unnamed_addr constant [17 x i8] c"JDWP exit error \00", align 1
@.str.13 = private unnamed_addr constant [2 x i8] c"\0A\00", align 1
@.str.14 = private unnamed_addr constant [19 x i8] c"%s(%d): %s [%s:%d]\00", align 1
@.str.18 = private unnamed_addr constant [15 x i8] c"HelperCommmand\00", align 1

; Function Attrs: nounwind uwtable
define hidden void @eventHelper_reportVMInit(ptr noundef %0, i8 noundef signext %1, ptr noundef %2, i8 noundef signext %3) #0 {
  %5 = alloca ptr, align 8
  %6 = alloca i8, align 1
  %7 = alloca ptr, align 8
  %8 = alloca i8, align 1
  %9 = alloca ptr, align 8
  store ptr %0, ptr %5, align 8
  store i8 %1, ptr %6, align 1
  store ptr %2, ptr %7, align 8
  store i8 %3, ptr %8, align 1
  %10 = call ptr @jvmtiAllocate(i32 noundef 128)
  store ptr %10, ptr %9, align 8
  %11 = load ptr, ptr %9, align 8
  %12 = icmp eq ptr %11, null
  br i1 %12, label %13, label %16

13:                                               ; preds = %4
  %14 = load ptr, ptr @stderr, align 8
  %15 = call ptr @jvmtiErrorText(i32 noundef 188)
  call void (ptr, ptr, ptr, ptr, ...) @print_message(ptr noundef %14, ptr noundef @.str.12, ptr noundef @.str.13, ptr noundef @.str.14, ptr noundef %15, i32 noundef 188, ptr noundef @.str.18, ptr noundef @.str.7, i32 noundef 1160)
  call void @debugInit_exit(i32 noundef 188, ptr noundef @.str.18)
  br label %16

16:                                               ; preds = %13, %4
  %17 = load ptr, ptr %9, align 8
  call void @llvm.memset.p0.i64(ptr align 8 %17, i8 0, i64 128, i1 false)
  %18 = load ptr, ptr %9, align 8
  %19 = getelementptr inbounds %struct.HelperCommand, ptr %18, i32 0, i32 0
  store i32 3, ptr %19, align 8
  %20 = load i8, ptr %6, align 1
  %21 = load ptr, ptr %9, align 8
  %22 = getelementptr inbounds %struct.HelperCommand, ptr %21, i32 0, i32 3
  store i8 %20, ptr %22, align 2
  %23 = load ptr, ptr %5, align 8
  %24 = load ptr, ptr %7, align 8
  %25 = load ptr, ptr %9, align 8
  %26 = getelementptr inbounds %struct.HelperCommand, ptr %25, i32 0, i32 5
  %27 = getelementptr inbounds %struct.ReportVMInitCommand, ptr %26, i32 0, i32 1
  call void @saveGlobalRef(ptr noundef %23, ptr noundef %24, ptr noundef %27)
  %28 = load i8, ptr %8, align 1
  %29 = load ptr, ptr %9, align 8
  %30 = getelementptr inbounds %struct.HelperCommand, ptr %29, i32 0, i32 5
  %31 = getelementptr inbounds %struct.ReportVMInitCommand, ptr %30, i32 0, i32 0
  store i8 %28, ptr %31, align 8
  %32 = load ptr, ptr %9, align 8
  call void @enqueueCommand(ptr noundef %32, i8 noundef zeroext 1, i8 noundef zeroext 0)
  ret void
}