; Function Attrs: nounwind uwtable
define hidden void @eventHelper_reportVMInit(ptr noundef %0, i8 noundef signext %1, ptr noundef %2, i8 noundef signext %3) local_unnamed_addr #0 {
  %5 = tail call ptr @jvmtiAllocate(i32 noundef 128) #9
  %6 = icmp eq ptr %5, null
  br i1 %6, label %7, label %10

7:                                                ; preds = %4
  %8 = load ptr, ptr @stderr, align 8
  %9 = tail call ptr @jvmtiErrorText(i32 noundef 188) #9
  tail call void (ptr, ptr, ptr, ptr, ...) @print_message(ptr noundef %8, ptr noundef nonnull @.str.12, ptr noundef nonnull @.str.13, ptr noundef nonnull @.str.14, ptr noundef %9, i32 noundef 188, ptr noundef nonnull @.str.18, ptr noundef nonnull @.str.7, i32 noundef 1160) #9
  tail call void @debugInit_exit(i32 noundef 188, ptr noundef nonnull @.str.18) #9
  br label %10

10:                                               ; preds = %7, %4
  tail call void @llvm.memset.p0.i64(ptr noundef nonnull align 8 dereferenceable(128) %5, i8 0, i64 128, i1 false)
  store i32 3, ptr %5, align 8
  %11 = getelementptr inbounds i8, ptr %5, i64 6
  store i8 %1, ptr %11, align 2
  %12 = getelementptr inbounds i8, ptr %5, i64 16
  %13 = getelementptr inbounds i8, ptr %5, i64 24
  tail call void @saveGlobalRef(ptr noundef %0, ptr noundef %2, ptr noundef nonnull %13) #9
  store i8 %3, ptr %12, align 8
  tail call fastcc void @enqueueCommand(ptr noundef nonnull %5, i8 noundef zeroext 1, i8 noundef zeroext 0)
  ret void
}